target datalayout = "e-m:e-p270:32:32-p271:32:32-p272:64:64-i64:64-i128:128-f80:128-n8:16:32:64-S128"
target triple = "x86_64-pc-linux-gnu"

%struct.apply_arg = type { i32, i32, i32, ptr, ptr, [0 x %struct.apply_filename] }
%struct.apply_filename = type { ptr, i64 }

; Function Attrs: nounwind sspstrong uwtable
define internal ptr @no_gvl_apply2files(ptr noundef %0) #0 {
  %2 = alloca ptr, align 8
  %3 = alloca ptr, align 8
  store ptr %0, ptr %2, align 8, !tbaa !83
  call void @llvm.lifetime.start.p0(i64 8, ptr %3) #24
  %4 = load ptr, ptr %2, align 8, !tbaa !83
  store ptr %4, ptr %3, align 8, !tbaa !230
  %5 = load ptr, ptr %3, align 8, !tbaa !230
  %6 = getelementptr inbounds nuw %struct.apply_arg, ptr %5, i32 0, i32 0
  store i32 0, ptr %6, align 8, !tbaa !11
  br label %7

7:                                                ; preds = %39, %1
  %8 = load ptr, ptr %3, align 8, !tbaa !230
  %9 = getelementptr inbounds nuw %struct.apply_arg, ptr %8, i32 0, i32 0
  %10 = load i32, ptr %9, align 8, !tbaa !11
  %11 = load ptr, ptr %3, align 8, !tbaa !230
  %12 = getelementptr inbounds nuw %struct.apply_arg, ptr %11, i32 0, i32 1
  %13 = load i32, ptr %12, align 4, !tbaa !11
  %14 = icmp slt i32 %10, %13
  br i1 %14, label %15, label %44

15:                                               ; preds = %7
  %16 = load ptr, ptr %3, align 8, !tbaa !230
  %17 = getelementptr inbounds nuw %struct.apply_arg, ptr %16, i32 0, i32 3
  %18 = load ptr, ptr %17, align 8, !tbaa !83
  %19 = load ptr, ptr %3, align 8, !tbaa !230
  %20 = getelementptr inbounds nuw %struct.apply_arg, ptr %19, i32 0, i32 5
  %21 = load ptr, ptr %3, align 8, !tbaa !230
  %22 = getelementptr inbounds nuw %struct.apply_arg, ptr %21, i32 0, i32 0
  %23 = load i32, ptr %22, align 8, !tbaa !11
  %24 = sext i32 %23 to i64
  %25 = getelementptr [0 x %struct.apply_filename], ptr %20, i64 0, i64 %24
  %26 = getelementptr inbounds nuw %struct.apply_filename, ptr %25, i32 0, i32 0
  %27 = load ptr, ptr %26, align 8, !tbaa !232
  %28 = load ptr, ptr %3, align 8, !tbaa !230
  %29 = getelementptr inbounds nuw %struct.apply_arg, ptr %28, i32 0, i32 4
  %30 = load ptr, ptr %29, align 8, !tbaa !83
  %31 = call i32 %18(ptr noundef %27, ptr noundef %30)
  %32 = icmp slt i32 %31, 0
  br i1 %32, label %33, label %38

33:                                               ; preds = %15
  %34 = call ptr @rb_errno_ptr()
  %35 = load i32, ptr %34, align 4, !tbaa !11
  %36 = load ptr, ptr %3, align 8, !tbaa !230
  %37 = getelementptr inbounds nuw %struct.apply_arg, ptr %36, i32 0, i32 2
  store i32 %35, ptr %37, align 8, !tbaa !11
  br label %44

38:                                               ; preds = %15
  br label %39

39:                                               ; preds = %38
  %40 = load ptr, ptr %3, align 8, !tbaa !230
  %41 = getelementptr inbounds nuw %struct.apply_arg, ptr %40, i32 0, i32 0
  %42 = load i32, ptr %41, align 8, !tbaa !11
  %43 = add i32 %42, 1
  store i32 %43, ptr %41, align 8, !tbaa !11
  br label %7, !llvm.loop !240

44:                                               ; preds = %33, %7
  call void @llvm.lifetime.end.p0(i64 8, ptr %3) #24
  ret ptr null
}