; Function Attrs: nounwind sspstrong uwtable
define internal noundef ptr @no_gvl_apply2files(ptr noundef captures(none) initializes((0, 4)) %0) #0 {
  %2 = getelementptr inbounds nuw i8, ptr %0, i64 4
  store i32 0, ptr %0, align 8, !tbaa !26
  %3 = load i32, ptr %2, align 4, !tbaa !26
  %4 = icmp sgt i32 %3, 0
  br i1 %4, label %.lr.ph, label %.loopexit

.lr.ph:                                           ; preds = %1
  %5 = getelementptr inbounds nuw i8, ptr %0, i64 16
  %6 = getelementptr inbounds nuw i8, ptr %0, i64 32
  %7 = getelementptr inbounds nuw i8, ptr %0, i64 24
  br label %8

8:                                                ; preds = %.lr.ph, %20
  %storemerge10 = phi i32 [ 0, %.lr.ph ], [ %22, %20 ]
  %9 = load ptr, ptr %5, align 8, !tbaa !333
  %10 = sext i32 %storemerge10 to i64
  %11 = getelementptr [0 x %struct.apply_filename], ptr %6, i64 0, i64 %10
  %12 = load ptr, ptr %11, align 8, !tbaa !337
  %13 = load ptr, ptr %7, align 8, !tbaa !333
  %14 = tail call i32 %9(ptr noundef %12, ptr noundef %13) #22
  %15 = icmp slt i32 %14, 0
  br i1 %15, label %16, label %20

16:                                               ; preds = %8
  %17 = tail call ptr @rb_errno_ptr() #22
  %18 = load i32, ptr %17, align 4, !tbaa !26
  %19 = getelementptr inbounds nuw i8, ptr %0, i64 8
  store i32 %18, ptr %19, align 8, !tbaa !26
  br label %.loopexit

20:                                               ; preds = %8
  %21 = load i32, ptr %0, align 8, !tbaa !26
  %22 = add i32 %21, 1
  store i32 %22, ptr %0, align 8, !tbaa !26
  %23 = load i32, ptr %2, align 4, !tbaa !26
  %24 = icmp slt i32 %22, %23
  br i1 %24, label %8, label %.loopexit, !llvm.loop !346

.loopexit:                                        ; preds = %20, %1, %16
  ret ptr null
}